target datalayout = "e-m:e-p270:32:32-p271:32:32-p272:64:64-i64:64-i128:128-f80:128-n8:16:32:64-S128"
target triple = "x86_64-pc-linux-gnu"

%class.ast = type { i32, i32, i32, i32 }
%class.justified_expr = type { ptr, ptr, ptr }
%class.vector.87 = type { ptr }

; Function Attrs: mustprogress nounwind uwtable
define linkonce_odr hidden void @_ZN3ast7inc_refEv(ptr noundef nonnull align 4 dereferenceable(16) %0) #7 comdat align 2 {
  %2 = alloca ptr, align 8
  store ptr %0, ptr %2, align 8, !tbaa !64
  %3 = load ptr, ptr %2, align 8
  %4 = getelementptr inbounds nuw %class.ast, ptr %3, i32 0, i32 2
  %5 = load i32, ptr %4, align 4, !tbaa !289
  %6 = add i32 %5, 1
  store i32 %6, ptr %4, align 4, !tbaa !289
  ret void
}

; Function Attrs: mustprogress uwtable
define linkonce_odr hidden void @_ZN11ast_manager7inc_refEP3ast(ptr noundef nonnull align 8 dereferenceable(976) %0, ptr noundef %1) #4 comdat align 2 {
  %3 = alloca ptr, align 8
  %4 = alloca ptr, align 8
  store ptr %0, ptr %3, align 8, !tbaa !8
  store ptr %1, ptr %4, align 8, !tbaa !64
  %5 = load ptr, ptr %4, align 8, !tbaa !64
  %6 = icmp ne ptr %5, null
  br i1 %6, label %7, label %9

7:                                                ; preds = %2
  %8 = load ptr, ptr %4, align 8, !tbaa !64
  call void @_ZN3ast7inc_refEv(ptr noundef nonnull align 4 dereferenceable(16) %8)
  br label %9

9:                                                ; preds = %7, %2
  ret void
}

; Function Attrs: mustprogress uwtable
define linkonce_odr hidden void @_ZN14justified_exprC2ERKS_(ptr noundef nonnull align 8 dereferenceable(24) %0, ptr noundef nonnull align 8 dereferenceable(24) %1) unnamed_addr #4 comdat align 2 {
  %3 = alloca ptr, align 8
  %4 = alloca ptr, align 8
  store ptr %0, ptr %3, align 8, !tbaa !233
  store ptr %1, ptr %4, align 8, !tbaa !233
  %5 = load ptr, ptr %3, align 8
  %6 = getelementptr inbounds nuw %class.justified_expr, ptr %5, i32 0, i32 0
  %7 = load ptr, ptr %4, align 8, !tbaa !233
  %8 = getelementptr inbounds nuw %class.justified_expr, ptr %7, i32 0, i32 0
  %9 = load ptr, ptr %8, align 8, !tbaa !279
  store ptr %9, ptr %6, align 8, !tbaa !8
  %10 = getelementptr inbounds nuw %class.justified_expr, ptr %5, i32 0, i32 1
  %11 = load ptr, ptr %4, align 8, !tbaa !233
  %12 = getelementptr inbounds nuw %class.justified_expr, ptr %11, i32 0, i32 1
  %13 = load ptr, ptr %12, align 8, !tbaa !237
  store ptr %13, ptr %10, align 8, !tbaa !237
  %14 = getelementptr inbounds nuw %class.justified_expr, ptr %5, i32 0, i32 2
  %15 = load ptr, ptr %4, align 8, !tbaa !233
  %16 = getelementptr inbounds nuw %class.justified_expr, ptr %15, i32 0, i32 2
  %17 = load ptr, ptr %16, align 8, !tbaa !276
  store ptr %17, ptr %14, align 8, !tbaa !276
  %18 = getelementptr inbounds nuw %class.justified_expr, ptr %5, i32 0, i32 0
  %19 = load ptr, ptr %18, align 8, !tbaa !279
  %20 = getelementptr inbounds nuw %class.justified_expr, ptr %5, i32 0, i32 1
  %21 = load ptr, ptr %20, align 8, !tbaa !237
  call void @_ZN11ast_manager7inc_refEP3ast(ptr noundef nonnull align 8 dereferenceable(976) %19, ptr noundef %21)
  %22 = getelementptr inbounds nuw %class.justified_expr, ptr %5, i32 0, i32 0
  %23 = load ptr, ptr %22, align 8, !tbaa !279
  %24 = getelementptr inbounds nuw %class.justified_expr, ptr %5, i32 0, i32 2
  %25 = load ptr, ptr %24, align 8, !tbaa !276
  call void @_ZN11ast_manager7inc_refEP3ast(ptr noundef nonnull align 8 dereferenceable(976) %23, ptr noundef %25)
  ret void
}

; Function Attrs: mustprogress uwtable
define linkonce_odr hidden noundef nonnull align 8 dereferenceable(8) ptr @_ZN6vectorI14justified_exprLb1EjE9push_backERKS0_(ptr noundef nonnull align 8 dereferenceable(8) %0, ptr noundef nonnull align 8 dereferenceable(24) %1) #4 comdat align 2 {
  %3 = alloca ptr, align 8
  %4 = alloca ptr, align 8
  store ptr %0, ptr %3, align 8, !tbaa !273
  store ptr %1, ptr %4, align 8, !tbaa !233
  %5 = load ptr, ptr %3, align 8
  %6 = getelementptr inbounds nuw %class.vector.87, ptr %5, i32 0, i32 0
  %7 = load ptr, ptr %6, align 8, !tbaa !277
  %8 = icmp eq ptr %7, null
  br i1 %8, label %19, label %9

9:                                                ; preds = %2
  %10 = getelementptr inbounds nuw %class.vector.87, ptr %5, i32 0, i32 0
  %11 = load ptr, ptr %10, align 8, !tbaa !277
  %12 = getelementptr inbounds i32, ptr %11, i64 -1
  %13 = load i32, ptr %12, align 4, !tbaa !50
  %14 = getelementptr inbounds nuw %class.vector.87, ptr %5, i32 0, i32 0
  %15 = load ptr, ptr %14, align 8, !tbaa !277
  %16 = getelementptr inbounds i32, ptr %15, i64 -2
  %17 = load i32, ptr %16, align 4, !tbaa !50
  %18 = icmp eq i32 %13, %17
  br i1 %18, label %19, label %20

19:                                               ; preds = %9, %2
  call void @_ZN6vectorI14justified_exprLb1EjE13expand_vectorEv(ptr noundef nonnull align 8 dereferenceable(8) %5)
  br label %20

20:                                               ; preds = %19, %9
  %21 = getelementptr inbounds nuw %class.vector.87, ptr %5, i32 0, i32 0
  %22 = load ptr, ptr %21, align 8, !tbaa !277
  %23 = getelementptr inbounds nuw %class.vector.87, ptr %5, i32 0, i32 0
  %24 = load ptr, ptr %23, align 8, !tbaa !277
  %25 = getelementptr inbounds i32, ptr %24, i64 -1
  %26 = load i32, ptr %25, align 4, !tbaa !50
  %27 = zext i32 %26 to i64
  %28 = getelementptr inbounds nuw %class.justified_expr, ptr %22, i64 %27
  %29 = load ptr, ptr %4, align 8, !tbaa !233
  call void @_ZN14justified_exprC2ERKS_(ptr noundef nonnull align 8 dereferenceable(24) %28, ptr noundef nonnull align 8 dereferenceable(24) %29)
  %30 = getelementptr inbounds nuw %class.vector.87, ptr %5, i32 0, i32 0
  %31 = load ptr, ptr %30, align 8, !tbaa !277
  %32 = getelementptr inbounds i32, ptr %31, i64 -1
  %33 = load i32, ptr %32, align 4, !tbaa !50
  %34 = add i32 %33, 1
  store i32 %34, ptr %32, align 4, !tbaa !50
  ret ptr %5
}

; Function Attrs: mustprogress uwtable
define hidden noundef zeroext i1 @_ZN12quasi_macrosclEjPK14justified_exprR6vectorIS0_Lb1EjE(ptr noundef nonnull align 8 dereferenceable(560) %0, i32 noundef %1, ptr noundef %2, ptr noundef nonnull align 8 dereferenceable(8) %3) #4 align 2 {
  %5 = alloca i1, align 1
  %6 = alloca ptr, align 8
  %7 = alloca i32, align 4
  %8 = alloca ptr, align 8
  %9 = alloca ptr, align 8
  %10 = alloca i32, align 4
  store ptr %0, ptr %6, align 8, !tbaa !3
  store i32 %1, ptr %7, align 4, !tbaa !50
  store ptr %2, ptr %8, align 8, !tbaa !233
  store ptr %3, ptr %9, align 8, !tbaa !273
  %11 = load ptr, ptr %6, align 8
  %12 = load i32, ptr %7, align 4, !tbaa !50
  %13 = load ptr, ptr %8, align 8, !tbaa !233
  %14 = call noundef zeroext i1 @_ZN12quasi_macros11find_macrosEjPK14justified_expr(ptr noundef nonnull align 8 dereferenceable(560) %11, i32 noundef %12, ptr noundef %13)
  br i1 %14, label %15, label %19

15:                                               ; preds = %4
  %16 = load i32, ptr %7, align 4, !tbaa !50
  %17 = load ptr, ptr %8, align 8, !tbaa !233
  %18 = load ptr, ptr %9, align 8, !tbaa !273
  call void @_ZN12quasi_macros12apply_macrosEjPK14justified_exprR6vectorIS0_Lb1EjE(ptr noundef nonnull align 8 dereferenceable(560) %11, i32 noundef %16, ptr noundef %17, ptr noundef nonnull align 8 dereferenceable(8) %18)
  store i1 true, ptr %5, align 1
  br label %36

19:                                               ; preds = %4
  call void @llvm.lifetime.start.p0(i64 4, ptr %10) #3
  store i32 0, ptr %10, align 4, !tbaa !50
  br label %20

20:                                               ; preds = %32, %19
  %21 = load i32, ptr %10, align 4, !tbaa !50
  %22 = load i32, ptr %7, align 4, !tbaa !50
  %23 = icmp ult i32 %21, %22
  br i1 %23, label %25, label %24

24:                                               ; preds = %20
  call void @llvm.lifetime.end.p0(i64 4, ptr %10) #3
  br label %35

25:                                               ; preds = %20
  %26 = load ptr, ptr %9, align 8, !tbaa !273
  %27 = load ptr, ptr %8, align 8, !tbaa !233
  %28 = load i32, ptr %10, align 4, !tbaa !50
  %29 = zext i32 %28 to i64
  %30 = getelementptr inbounds nuw %class.justified_expr, ptr %27, i64 %29
  %31 = call noundef nonnull align 8 dereferenceable(8) ptr @_ZN6vectorI14justified_exprLb1EjE9push_backERKS0_(ptr noundef nonnull align 8 dereferenceable(8) %26, ptr noundef nonnull align 8 dereferenceable(24) %30)
  br label %32

32:                                               ; preds = %25
  %33 = load i32, ptr %10, align 4, !tbaa !50
  %34 = add i32 %33, 1
  store i32 %34, ptr %10, align 4, !tbaa !50
  br label %20, !llvm.loop !280

35:                                               ; preds = %24
  store i1 false, ptr %5, align 1
  br label %36

36:                                               ; preds = %35, %15
  %37 = load i1, ptr %5, align 1
  ret i1 %37
}