; Function Attrs: mustprogress uwtable
define hidden noundef zeroext i1 @_ZN12quasi_macrosclEjPK14justified_exprR6vectorIS0_Lb1EjE(ptr noundef nonnull align 8 dereferenceable(560) %0, i32 noundef %1, ptr noundef readonly captures(none) %2, ptr noundef nonnull align 8 dereferenceable(8) %3) local_unnamed_addr #3 align 2 {
  %5 = tail call noundef zeroext i1 @_ZN12quasi_macros11find_macrosEjPK14justified_expr(ptr noundef nonnull align 8 dereferenceable(560) %0, i32 noundef %1, ptr noundef %2)
  br i1 %5, label %6, label %.preheader

.preheader:                                       ; preds = %4
  %.not = icmp eq i32 %1, 0
  br i1 %.not, label %.loopexit, label %.lr.ph.preheader

.lr.ph.preheader:                                 ; preds = %.preheader
  %wide.trip.count = zext i32 %1 to i64
  %.pre = load ptr, ptr %3, align 8, !tbaa !239
  br label %.lr.ph

6:                                                ; preds = %4
  tail call void @_ZN12quasi_macros12apply_macrosEjPK14justified_exprR6vectorIS0_Lb1EjE(ptr noundef nonnull align 8 dereferenceable(560) %0, i32 noundef %1, ptr noundef %2, ptr noundef nonnull align 8 dereferenceable(8) %3)
  br label %.loopexit

.lr.ph:                                           ; preds = %.lr.ph.preheader, %_ZN6vectorI14justified_exprLb1EjE9push_backERKS0_.exit
  %7 = phi ptr [ %.pre, %.lr.ph.preheader ], [ %18, %_ZN6vectorI14justified_exprLb1EjE9push_backERKS0_.exit ]
  %indvars.iv = phi i64 [ 0, %.lr.ph.preheader ], [ %indvars.iv.next, %_ZN6vectorI14justified_exprLb1EjE9push_backERKS0_.exit ]
  %8 = getelementptr inbounds nuw %class.justified_expr, ptr %2, i64 %indvars.iv
  %9 = icmp eq ptr %7, null
  br i1 %9, label %16, label %10

10:                                               ; preds = %.lr.ph
  %11 = getelementptr inbounds i8, ptr %7, i64 -4
  %12 = load i32, ptr %11, align 4, !tbaa !36
  %13 = getelementptr inbounds i8, ptr %7, i64 -8
  %14 = load i32, ptr %13, align 4, !tbaa !36
  %15 = icmp eq i32 %12, %14
  br i1 %15, label %16, label %17

16:                                               ; preds = %10, %.lr.ph
  tail call void @_ZN6vectorI14justified_exprLb1EjE13expand_vectorEv(ptr noundef nonnull align 8 dereferenceable(8) %3)
  %.pre.i = load ptr, ptr %3, align 8, !tbaa !239
  %.phi.trans.insert.i = getelementptr inbounds i8, ptr %.pre.i, i64 -4
  %.pre2.i = load i32, ptr %.phi.trans.insert.i, align 4, !tbaa !36
  br label %17

17:                                               ; preds = %16, %10
  %18 = phi ptr [ %.pre.i, %16 ], [ %7, %10 ]
  %19 = phi i32 [ %.pre2.i, %16 ], [ %12, %10 ]
  %20 = zext i32 %19 to i64
  %21 = getelementptr inbounds nuw %class.justified_expr, ptr %18, i64 %20
  %22 = load ptr, ptr %8, align 8, !tbaa !243
  store ptr %22, ptr %21, align 8, !tbaa !3
  %23 = getelementptr inbounds nuw i8, ptr %21, i64 8
  %24 = getelementptr inbounds nuw i8, ptr %8, i64 8
  %25 = load ptr, ptr %24, align 8, !tbaa !219
  store ptr %25, ptr %23, align 8, !tbaa !219
  %26 = getelementptr inbounds nuw i8, ptr %21, i64 16
  %27 = getelementptr inbounds nuw i8, ptr %8, i64 16
  %28 = load ptr, ptr %27, align 8, !tbaa !238
  store ptr %28, ptr %26, align 8, !tbaa !238
  %.not.i.i.i = icmp eq ptr %25, null
  br i1 %.not.i.i.i, label %_ZN11ast_manager7inc_refEP3ast.exit.i.i, label %29

29:                                               ; preds = %17
  %30 = getelementptr inbounds nuw i8, ptr %25, i64 8
  %31 = load i32, ptr %30, align 4, !tbaa !41
  %32 = add i32 %31, 1
  store i32 %32, ptr %30, align 4, !tbaa !41
  br label %_ZN11ast_manager7inc_refEP3ast.exit.i.i

_ZN11ast_manager7inc_refEP3ast.exit.i.i:          ; preds = %29, %17
  %.not.i4.i.i = icmp eq ptr %28, null
  br i1 %.not.i4.i.i, label %_ZN6vectorI14justified_exprLb1EjE9push_backERKS0_.exit, label %33

33:                                               ; preds = %_ZN11ast_manager7inc_refEP3ast.exit.i.i
  %34 = getelementptr inbounds nuw i8, ptr %28, i64 8
  %35 = load i32, ptr %34, align 4, !tbaa !41
  %36 = add i32 %35, 1
  store i32 %36, ptr %34, align 4, !tbaa !41
  br label %_ZN6vectorI14justified_exprLb1EjE9push_backERKS0_.exit

_ZN6vectorI14justified_exprLb1EjE9push_backERKS0_.exit: ; preds = %_ZN11ast_manager7inc_refEP3ast.exit.i.i, %33
  %37 = getelementptr inbounds i8, ptr %18, i64 -4
  %38 = load i32, ptr %37, align 4, !tbaa !36
  %39 = add i32 %38, 1
  store i32 %39, ptr %37, align 4, !tbaa !36
  %indvars.iv.next = add nuw nsw i64 %indvars.iv, 1
  %exitcond.not = icmp eq i64 %indvars.iv.next, %wide.trip.count
  br i1 %exitcond.not, label %.loopexit, label %.lr.ph, !llvm.loop !244

.loopexit:                                        ; preds = %_ZN6vectorI14justified_exprLb1EjE9push_backERKS0_.exit, %.preheader, %6
  ret i1 %5
}